target datalayout = "e-m:e-p270:32:32-p271:32:32-p272:64:64-i64:64-i128:128-f80:128-n8:16:32:64-S128"
target triple = "x86_64-pc-linux-gnu"

%struct._zend_refcounted_h = type { i32, %union.anon.4 }
%union.anon.4 = type { i32 }
%struct._zend_string = type { %struct._zend_refcounted_h, i64, i64, [1 x i8] }
%struct._zend_ast = type { i16, i16, i32, [1 x ptr] }
%struct._zend_ast_list = type { i16, i16, i32, i32, [1 x ptr] }
%struct.smart_str = type { ptr, i64 }

; Function Attrs: nounwind uwtable
define internal void @zend_ast_export_type(ptr noundef %0, ptr noundef %1, i32 noundef %2) #0 {
  %4 = alloca ptr, align 8
  %5 = alloca i64, align 8
  %6 = alloca i8, align 1
  %7 = alloca ptr, align 8
  %8 = alloca i8, align 1
  %9 = alloca i8, align 1
  %10 = alloca i64, align 8
  %11 = alloca ptr, align 8
  %12 = alloca i64, align 8
  %13 = alloca i8, align 1
  %14 = alloca ptr, align 8
  %15 = alloca i8, align 1
  %16 = alloca i8, align 1
  %17 = alloca i64, align 8
  %18 = alloca ptr, align 8
  %19 = alloca i64, align 8
  %20 = alloca i8, align 1
  %21 = alloca ptr, align 8
  %22 = alloca i8, align 1
  %23 = alloca i8, align 1
  %24 = alloca i64, align 8
  %25 = alloca ptr, align 8
  %26 = alloca i8, align 1
  %27 = alloca ptr, align 8
  %28 = alloca i8, align 1
  %29 = alloca ptr, align 8
  %30 = alloca i8, align 1
  %31 = alloca ptr, align 8
  %32 = alloca ptr, align 8
  %33 = alloca ptr, align 8
  %34 = alloca ptr, align 8
  %35 = alloca i32, align 4
  %36 = alloca ptr, align 8
  %37 = alloca i32, align 4
  %38 = alloca ptr, align 8
  %39 = alloca i32, align 4
  store ptr %0, ptr %33, align 8
  store ptr %1, ptr %34, align 8
  store i32 %2, ptr %35, align 4
  %40 = load ptr, ptr %34, align 8
  %41 = getelementptr inbounds %struct._zend_ast, ptr %40, i32 0, i32 0
  %42 = load i16, ptr %41, align 8
  %43 = zext i16 %42 to i32
  %44 = icmp eq i32 %43, 144
  br i1 %44, label %45, label %119

45:                                               ; preds = %3
  %46 = load ptr, ptr %34, align 8
  store ptr %46, ptr %31, align 8
  %47 = load ptr, ptr %31, align 8
  store ptr %47, ptr %36, align 8
  store i32 0, ptr %37, align 4
  br label %48

48:                                               ; preds = %115, %45
  %49 = load i32, ptr %37, align 4
  %50 = load ptr, ptr %36, align 8
  %51 = getelementptr inbounds %struct._zend_ast_list, ptr %50, i32 0, i32 3
  %52 = load i32, ptr %51, align 8
  %53 = icmp ult i32 %49, %52
  br i1 %53, label %54, label %118

54:                                               ; preds = %48
  %55 = load i32, ptr %37, align 4
  %56 = icmp ne i32 %55, 0
  br i1 %56, label %57, label %106

57:                                               ; preds = %54
  %58 = load ptr, ptr %33, align 8
  store ptr %58, ptr %25, align 8
  store i8 124, ptr %26, align 1
  %59 = load ptr, ptr %25, align 8
  %60 = load i8, ptr %26, align 1
  store ptr %59, ptr %21, align 8
  store i8 %60, ptr %22, align 1
  store i8 0, ptr %23, align 1
  %61 = load ptr, ptr %21, align 8
  %62 = load i8, ptr %23, align 1
  %63 = trunc i8 %62 to i1
  store ptr %61, ptr %18, align 8
  store i64 1, ptr %19, align 8
  %64 = zext i1 %63 to i8
  store i8 %64, ptr %20, align 1
  %65 = load ptr, ptr %18, align 8
  %66 = load ptr, ptr %65, align 8
  %67 = icmp ne ptr %66, null
  %68 = xor i1 %67, true
  br i1 %68, label %69, label %70

69:                                               ; preds = %57
  br label %83

70:                                               ; preds = %57
  %71 = load ptr, ptr %18, align 8
  %72 = load ptr, ptr %71, align 8
  %73 = getelementptr inbounds %struct._zend_string, ptr %72, i32 0, i32 2
  %74 = load i64, ptr %73, align 8
  %75 = load i64, ptr %19, align 8
  %76 = add i64 %75, %74
  store i64 %76, ptr %19, align 8
  %77 = load i64, ptr %19, align 8
  %78 = load ptr, ptr %18, align 8
  %79 = getelementptr inbounds %struct.smart_str, ptr %78, i32 0, i32 1
  %80 = load i64, ptr %79, align 8
  %81 = icmp uge i64 %77, %80
  br i1 %81, label %82, label %93

82:                                               ; preds = %70
  br label %83

83:                                               ; preds = %82, %69
  %84 = load i8, ptr %20, align 1
  %85 = trunc i8 %84 to i1
  br i1 %85, label %86, label %89

86:                                               ; preds = %83
  %87 = load ptr, ptr %18, align 8
  %88 = load i64, ptr %19, align 8
  call void @smart_str_realloc(ptr noundef %87, i64 noundef %88) #10
  br label %92

89:                                               ; preds = %83
  %90 = load ptr, ptr %18, align 8
  %91 = load i64, ptr %19, align 8
  call void @smart_str_erealloc(ptr noundef %90, i64 noundef %91) #10
  br label %92

92:                                               ; preds = %89, %86
  br label %93

93:                                               ; preds = %92, %70
  %94 = load i64, ptr %19, align 8
  store i64 %94, ptr %24, align 8
  %95 = load i8, ptr %22, align 1
  %96 = load ptr, ptr %21, align 8
  %97 = load ptr, ptr %96, align 8
  %98 = getelementptr inbounds %struct._zend_string, ptr %97, i32 0, i32 3
  %99 = load i64, ptr %24, align 8
  %100 = sub i64 %99, 1
  %101 = getelementptr inbounds [1 x i8], ptr %98, i64 0, i64 %100
  store i8 %95, ptr %101, align 1
  %102 = load i64, ptr %24, align 8
  %103 = load ptr, ptr %21, align 8
  %104 = load ptr, ptr %103, align 8
  %105 = getelementptr inbounds %struct._zend_string, ptr %104, i32 0, i32 2
  store i64 %102, ptr %105, align 8
  br label %106

106:                                              ; preds = %93, %54
  %107 = load ptr, ptr %33, align 8
  %108 = load ptr, ptr %36, align 8
  %109 = getelementptr inbounds %struct._zend_ast_list, ptr %108, i32 0, i32 4
  %110 = load i32, ptr %37, align 4
  %111 = zext i32 %110 to i64
  %112 = getelementptr inbounds [1 x ptr], ptr %109, i64 0, i64 %111
  %113 = load ptr, ptr %112, align 8
  %114 = load i32, ptr %35, align 4
  call void @zend_ast_export_type(ptr noundef %107, ptr noundef %113, i32 noundef %114)
  br label %115

115:                                              ; preds = %106
  %116 = load i32, ptr %37, align 4
  %117 = add i32 %116, 1
  store i32 %117, ptr %37, align 4
  br label %48

118:                                              ; preds = %48
  br label %259

119:                                              ; preds = %3
  %120 = load ptr, ptr %34, align 8
  %121 = getelementptr inbounds %struct._zend_ast, ptr %120, i32 0, i32 0
  %122 = load i16, ptr %121, align 8
  %123 = zext i16 %122 to i32
  %124 = icmp eq i32 %123, 145
  br i1 %124, label %125, label %199

125:                                              ; preds = %119
  %126 = load ptr, ptr %34, align 8
  store ptr %126, ptr %32, align 8
  %127 = load ptr, ptr %32, align 8
  store ptr %127, ptr %38, align 8
  store i32 0, ptr %39, align 4
  br label %128

128:                                              ; preds = %195, %125
  %129 = load i32, ptr %39, align 4
  %130 = load ptr, ptr %38, align 8
  %131 = getelementptr inbounds %struct._zend_ast_list, ptr %130, i32 0, i32 3
  %132 = load i32, ptr %131, align 8
  %133 = icmp ult i32 %129, %132
  br i1 %133, label %134, label %198

134:                                              ; preds = %128
  %135 = load i32, ptr %39, align 4
  %136 = icmp ne i32 %135, 0
  br i1 %136, label %137, label %186

137:                                              ; preds = %134
  %138 = load ptr, ptr %33, align 8
  store ptr %138, ptr %27, align 8
  store i8 38, ptr %28, align 1
  %139 = load ptr, ptr %27, align 8
  %140 = load i8, ptr %28, align 1
  store ptr %139, ptr %14, align 8
  store i8 %140, ptr %15, align 1
  store i8 0, ptr %16, align 1
  %141 = load ptr, ptr %14, align 8
  %142 = load i8, ptr %16, align 1
  %143 = trunc i8 %142 to i1
  store ptr %141, ptr %11, align 8
  store i64 1, ptr %12, align 8
  %144 = zext i1 %143 to i8
  store i8 %144, ptr %13, align 1
  %145 = load ptr, ptr %11, align 8
  %146 = load ptr, ptr %145, align 8
  %147 = icmp ne ptr %146, null
  %148 = xor i1 %147, true
  br i1 %148, label %149, label %150

149:                                              ; preds = %137
  br label %163

150:                                              ; preds = %137
  %151 = load ptr, ptr %11, align 8
  %152 = load ptr, ptr %151, align 8
  %153 = getelementptr inbounds %struct._zend_string, ptr %152, i32 0, i32 2
  %154 = load i64, ptr %153, align 8
  %155 = load i64, ptr %12, align 8
  %156 = add i64 %155, %154
  store i64 %156, ptr %12, align 8
  %157 = load i64, ptr %12, align 8
  %158 = load ptr, ptr %11, align 8
  %159 = getelementptr inbounds %struct.smart_str, ptr %158, i32 0, i32 1
  %160 = load i64, ptr %159, align 8
  %161 = icmp uge i64 %157, %160
  br i1 %161, label %162, label %173

162:                                              ; preds = %150
  br label %163

163:                                              ; preds = %162, %149
  %164 = load i8, ptr %13, align 1
  %165 = trunc i8 %164 to i1
  br i1 %165, label %166, label %169

166:                                              ; preds = %163
  %167 = load ptr, ptr %11, align 8
  %168 = load i64, ptr %12, align 8
  call void @smart_str_realloc(ptr noundef %167, i64 noundef %168) #10
  br label %172

169:                                              ; preds = %163
  %170 = load ptr, ptr %11, align 8
  %171 = load i64, ptr %12, align 8
  call void @smart_str_erealloc(ptr noundef %170, i64 noundef %171) #10
  br label %172

172:                                              ; preds = %169, %166
  br label %173

173:                                              ; preds = %172, %150
  %174 = load i64, ptr %12, align 8
  store i64 %174, ptr %17, align 8
  %175 = load i8, ptr %15, align 1
  %176 = load ptr, ptr %14, align 8
  %177 = load ptr, ptr %176, align 8
  %178 = getelementptr inbounds %struct._zend_string, ptr %177, i32 0, i32 3
  %179 = load i64, ptr %17, align 8
  %180 = sub i64 %179, 1
  %181 = getelementptr inbounds [1 x i8], ptr %178, i64 0, i64 %180
  store i8 %175, ptr %181, align 1
  %182 = load i64, ptr %17, align 8
  %183 = load ptr, ptr %14, align 8
  %184 = load ptr, ptr %183, align 8
  %185 = getelementptr inbounds %struct._zend_string, ptr %184, i32 0, i32 2
  store i64 %182, ptr %185, align 8
  br label %186

186:                                              ; preds = %173, %134
  %187 = load ptr, ptr %33, align 8
  %188 = load ptr, ptr %38, align 8
  %189 = getelementptr inbounds %struct._zend_ast_list, ptr %188, i32 0, i32 4
  %190 = load i32, ptr %39, align 4
  %191 = zext i32 %190 to i64
  %192 = getelementptr inbounds [1 x ptr], ptr %189, i64 0, i64 %191
  %193 = load ptr, ptr %192, align 8
  %194 = load i32, ptr %35, align 4
  call void @zend_ast_export_type(ptr noundef %187, ptr noundef %193, i32 noundef %194)
  br label %195

195:                                              ; preds = %186
  %196 = load i32, ptr %39, align 4
  %197 = add i32 %196, 1
  store i32 %197, ptr %39, align 4
  br label %128

198:                                              ; preds = %128
  br label %259

199:                                              ; preds = %119
  %200 = load ptr, ptr %34, align 8
  %201 = getelementptr inbounds %struct._zend_ast, ptr %200, i32 0, i32 1
  %202 = load i16, ptr %201, align 2
  %203 = zext i16 %202 to i32
  %204 = and i32 %203, 256
  %205 = icmp ne i32 %204, 0
  br i1 %205, label %206, label %255

206:                                              ; preds = %199
  %207 = load ptr, ptr %33, align 8
  store ptr %207, ptr %29, align 8
  store i8 63, ptr %30, align 1
  %208 = load ptr, ptr %29, align 8
  %209 = load i8, ptr %30, align 1
  store ptr %208, ptr %7, align 8
  store i8 %209, ptr %8, align 1
  store i8 0, ptr %9, align 1
  %210 = load ptr, ptr %7, align 8
  %211 = load i8, ptr %9, align 1
  %212 = trunc i8 %211 to i1
  store ptr %210, ptr %4, align 8
  store i64 1, ptr %5, align 8
  %213 = zext i1 %212 to i8
  store i8 %213, ptr %6, align 1
  %214 = load ptr, ptr %4, align 8
  %215 = load ptr, ptr %214, align 8
  %216 = icmp ne ptr %215, null
  %217 = xor i1 %216, true
  br i1 %217, label %218, label %219

218:                                              ; preds = %206
  br label %232

219:                                              ; preds = %206
  %220 = load ptr, ptr %4, align 8
  %221 = load ptr, ptr %220, align 8
  %222 = getelementptr inbounds %struct._zend_string, ptr %221, i32 0, i32 2
  %223 = load i64, ptr %222, align 8
  %224 = load i64, ptr %5, align 8
  %225 = add i64 %224, %223
  store i64 %225, ptr %5, align 8
  %226 = load i64, ptr %5, align 8
  %227 = load ptr, ptr %4, align 8
  %228 = getelementptr inbounds %struct.smart_str, ptr %227, i32 0, i32 1
  %229 = load i64, ptr %228, align 8
  %230 = icmp uge i64 %226, %229
  br i1 %230, label %231, label %242

231:                                              ; preds = %219
  br label %232

232:                                              ; preds = %231, %218
  %233 = load i8, ptr %6, align 1
  %234 = trunc i8 %233 to i1
  br i1 %234, label %235, label %238

235:                                              ; preds = %232
  %236 = load ptr, ptr %4, align 8
  %237 = load i64, ptr %5, align 8
  call void @smart_str_realloc(ptr noundef %236, i64 noundef %237) #10
  br label %241

238:                                              ; preds = %232
  %239 = load ptr, ptr %4, align 8
  %240 = load i64, ptr %5, align 8
  call void @smart_str_erealloc(ptr noundef %239, i64 noundef %240) #10
  br label %241

241:                                              ; preds = %238, %235
  br label %242

242:                                              ; preds = %241, %219
  %243 = load i64, ptr %5, align 8
  store i64 %243, ptr %10, align 8
  %244 = load i8, ptr %8, align 1
  %245 = load ptr, ptr %7, align 8
  %246 = load ptr, ptr %245, align 8
  %247 = getelementptr inbounds %struct._zend_string, ptr %246, i32 0, i32 3
  %248 = load i64, ptr %10, align 8
  %249 = sub i64 %248, 1
  %250 = getelementptr inbounds [1 x i8], ptr %247, i64 0, i64 %249
  store i8 %244, ptr %250, align 1
  %251 = load i64, ptr %10, align 8
  %252 = load ptr, ptr %7, align 8
  %253 = load ptr, ptr %252, align 8
  %254 = getelementptr inbounds %struct._zend_string, ptr %253, i32 0, i32 2
  store i64 %251, ptr %254, align 8
  br label %255

255:                                              ; preds = %242, %199
  %256 = load ptr, ptr %33, align 8
  %257 = load ptr, ptr %34, align 8
  %258 = load i32, ptr %35, align 4
  call void @zend_ast_export_ns_name(ptr noundef %256, ptr noundef %257, i32 noundef 0, i32 noundef %258)
  br label %259

259:                                              ; preds = %255, %198, %118
  ret void
}