; Function Attrs: nounwind uwtable
define internal fastcc void @zend_ast_export_type(ptr noundef %0, ptr noundef %1, i32 noundef %2) unnamed_addr #0 {
  %4 = load i16, ptr %1, align 8
  switch i16 %4, label %57 [
    i16 144, label %.preheader
    i16 145, label %.preheader109
  ]

.preheader109:                                    ; preds = %3
  %5 = getelementptr inbounds i8, ptr %1, i64 8
  %6 = load i32, ptr %5, align 8
  %.not114 = icmp eq i32 %6, 0
  br i1 %.not114, label %.loopexit, label %.lr.ph

.lr.ph:                                           ; preds = %.preheader109
  %7 = getelementptr inbounds i8, ptr %0, i64 8
  %8 = getelementptr inbounds i8, ptr %1, i64 16
  br label %35

.preheader:                                       ; preds = %3
  %9 = getelementptr inbounds i8, ptr %1, i64 8
  %10 = load i32, ptr %9, align 8
  %.not115 = icmp eq i32 %10, 0
  br i1 %.not115, label %.loopexit, label %.lr.ph113

.lr.ph113:                                        ; preds = %.preheader
  %11 = getelementptr inbounds i8, ptr %0, i64 8
  %12 = getelementptr inbounds i8, ptr %1, i64 16
  br label %13

13:                                               ; preds = %.lr.ph113, %29
  %indvars.iv118 = phi i64 [ 0, %.lr.ph113 ], [ %indvars.iv.next119, %29 ]
  %.not106 = icmp eq i64 %indvars.iv118, 0
  br i1 %.not106, label %29, label %14

14:                                               ; preds = %13
  %15 = load ptr, ptr %0, align 8
  %.not107 = icmp eq ptr %15, null
  br i1 %.not107, label %21, label %16

16:                                               ; preds = %14
  %17 = getelementptr inbounds i8, ptr %15, i64 16
  %18 = load i64, ptr %17, align 8
  %19 = add i64 %18, 1
  %20 = load i64, ptr %11, align 8
  %.not108 = icmp ult i64 %19, %20
  br i1 %.not108, label %22, label %21

21:                                               ; preds = %14, %16
  %.092 = phi i64 [ 1, %14 ], [ %19, %16 ]
  tail call void @smart_str_erealloc(ptr noundef nonnull %0, i64 noundef %.092) #14
  %.pre121 = load ptr, ptr %0, align 8
  br label %22

22:                                               ; preds = %21, %16
  %23 = phi ptr [ %.pre121, %21 ], [ %15, %16 ]
  %.193 = phi i64 [ %.092, %21 ], [ %19, %16 ]
  %24 = getelementptr inbounds i8, ptr %23, i64 24
  %25 = add i64 %.193, -1
  %26 = getelementptr inbounds [1 x i8], ptr %24, i64 0, i64 %25
  store i8 124, ptr %26, align 1
  %27 = load ptr, ptr %0, align 8
  %28 = getelementptr inbounds i8, ptr %27, i64 16
  store i64 %.193, ptr %28, align 8
  br label %29

29:                                               ; preds = %22, %13
  %30 = getelementptr inbounds [1 x ptr], ptr %12, i64 0, i64 %indvars.iv118
  %31 = load ptr, ptr %30, align 8
  tail call fastcc void @zend_ast_export_type(ptr noundef %0, ptr noundef %31, i32 noundef %2)
  %indvars.iv.next119 = add nuw nsw i64 %indvars.iv118, 1
  %32 = load i32, ptr %9, align 8
  %33 = zext i32 %32 to i64
  %34 = icmp ult i64 %indvars.iv.next119, %33
  br i1 %34, label %13, label %.loopexit

35:                                               ; preds = %.lr.ph, %51
  %indvars.iv = phi i64 [ 0, %.lr.ph ], [ %indvars.iv.next, %51 ]
  %.not103 = icmp eq i64 %indvars.iv, 0
  br i1 %.not103, label %51, label %36

36:                                               ; preds = %35
  %37 = load ptr, ptr %0, align 8
  %.not104 = icmp eq ptr %37, null
  br i1 %.not104, label %43, label %38

38:                                               ; preds = %36
  %39 = getelementptr inbounds i8, ptr %37, i64 16
  %40 = load i64, ptr %39, align 8
  %41 = add i64 %40, 1
  %42 = load i64, ptr %7, align 8
  %.not105 = icmp ult i64 %41, %42
  br i1 %.not105, label %44, label %43

43:                                               ; preds = %36, %38
  %.090 = phi i64 [ 1, %36 ], [ %41, %38 ]
  tail call void @smart_str_erealloc(ptr noundef nonnull %0, i64 noundef %.090) #14
  %.pre = load ptr, ptr %0, align 8
  br label %44

44:                                               ; preds = %43, %38
  %45 = phi ptr [ %.pre, %43 ], [ %37, %38 ]
  %.191 = phi i64 [ %.090, %43 ], [ %41, %38 ]
  %46 = getelementptr inbounds i8, ptr %45, i64 24
  %47 = add i64 %.191, -1
  %48 = getelementptr inbounds [1 x i8], ptr %46, i64 0, i64 %47
  store i8 38, ptr %48, align 1
  %49 = load ptr, ptr %0, align 8
  %50 = getelementptr inbounds i8, ptr %49, i64 16
  store i64 %.191, ptr %50, align 8
  br label %51

51:                                               ; preds = %44, %35
  %52 = getelementptr inbounds [1 x ptr], ptr %8, i64 0, i64 %indvars.iv
  %53 = load ptr, ptr %52, align 8
  tail call fastcc void @zend_ast_export_type(ptr noundef %0, ptr noundef %53, i32 noundef %2)
  %indvars.iv.next = add nuw nsw i64 %indvars.iv, 1
  %54 = load i32, ptr %5, align 8
  %55 = zext i32 %54 to i64
  %56 = icmp ult i64 %indvars.iv.next, %55
  br i1 %56, label %35, label %.loopexit

57:                                               ; preds = %3
  %58 = getelementptr inbounds i8, ptr %1, i64 2
  %59 = load i16, ptr %58, align 2
  %60 = and i16 %59, 256
  %.not = icmp eq i16 %60, 0
  br i1 %.not, label %77, label %61

61:                                               ; preds = %57
  %62 = load ptr, ptr %0, align 8
  %.not101 = icmp eq ptr %62, null
  br i1 %.not101, label %69, label %63

63:                                               ; preds = %61
  %64 = getelementptr inbounds i8, ptr %62, i64 16
  %65 = load i64, ptr %64, align 8
  %66 = add i64 %65, 1
  %67 = getelementptr inbounds i8, ptr %0, i64 8
  %68 = load i64, ptr %67, align 8
  %.not102 = icmp ult i64 %66, %68
  br i1 %.not102, label %70, label %69

69:                                               ; preds = %61, %63
  %.088 = phi i64 [ 1, %61 ], [ %66, %63 ]
  tail call void @smart_str_erealloc(ptr noundef nonnull %0, i64 noundef %.088) #14
  %.pre122 = load ptr, ptr %0, align 8
  br label %70

70:                                               ; preds = %69, %63
  %71 = phi ptr [ %.pre122, %69 ], [ %62, %63 ]
  %.1 = phi i64 [ %.088, %69 ], [ %66, %63 ]
  %72 = getelementptr inbounds i8, ptr %71, i64 24
  %73 = add i64 %.1, -1
  %74 = getelementptr inbounds [1 x i8], ptr %72, i64 0, i64 %73
  store i8 63, ptr %74, align 1
  %75 = load ptr, ptr %0, align 8
  %76 = getelementptr inbounds i8, ptr %75, i64 16
  store i64 %.1, ptr %76, align 8
  br label %77

77:                                               ; preds = %70, %57
  tail call fastcc void @zend_ast_export_ns_name(ptr noundef %0, ptr noundef nonnull %1, i32 noundef %2)
  br label %.loopexit

.loopexit:                                        ; preds = %51, %29, %.preheader109, %.preheader, %77
  ret void
}